target datalayout = "e-m:e-p270:32:32-p271:32:32-p272:64:64-i64:64-i128:128-f80:128-n8:16:32:64-S128"
target triple = "x86_64-unknown-linux-gnu"

%class.rational = type { %class.mpq }
%class.mpq = type { %class.mpz, %class.mpz }
%class.mpz = type { i32, i8, ptr }
%"class.nla::monomial_bounds" = type { %"struct.nla::common", ptr }
%"struct.nla::common" = type { ptr, %"class.nla::nex_creator" }
%"class.nla::nex_creator" = type { %class.ptr_vector, %"class.std::unordered_map", %"class.std::unordered_map.2", %class.svector, %"class.nla::nex_creator::mul_factory" }
%class.ptr_vector = type { %class.vector }
%class.vector = type { ptr }
%"class.std::unordered_map" = type { %"class.std::_Hashtable" }
%"class.std::_Hashtable" = type { ptr, i64, %"struct.std::__detail::_Hash_node_base", i64, %"struct.std::__detail::_Prime_rehash_policy", ptr }
%"struct.std::__detail::_Hash_node_base" = type { ptr }
%"struct.std::__detail::_Prime_rehash_policy" = type { float, i64 }
%"class.std::unordered_map.2" = type { %"class.std::_Hashtable.3" }
%"class.std::_Hashtable.3" = type { ptr, i64, %"struct.std::__detail::_Hash_node_base", i64, %"struct.std::__detail::_Prime_rehash_policy", ptr }
%class.svector = type { %class.vector.16 }
%class.vector.16 = type { ptr }
%"class.nla::nex_creator::mul_factory" = type { ptr, %class.rational, %class.vector.17 }
%class.vector.17 = type { ptr }
%"class.nla::core" = type { i32, i32, %"class.nla::var_eqs", ptr, ptr, %struct.smt_params_helper, %"class.std::function", %class.vector.29, %class.vector.30, %class.vector.31, %class.vector.32, %class.indexed_uint_set, %class.indexed_uint_set, %"struct.nla::tangents", %"struct.nla::basics", %"class.nla::order", %"class.nla::monotone", %"class.nla::powers", %"class.nla::divisions", %"class.nla::intervals", %"class.nla::monomial_bounds", i32, i8, [3 x i8], %"class.nla::horner", %"class.nla::grobner", %"class.nla::emonics", %class.svector, %class.indexed_uint_set, %class.reslimit, i8, %"class.nra::solver", i8, i32, ptr }
%"class.nla::var_eqs" = type { ptr, %class.union_find, %"class.lp::incremental_vector", %class.vector.20, %class.trail_stack, %class.svector.23, %class.svector.25, %class.svector, %class.svector.27, %"struct.nla::var_eqs<nla::emonics>::stats" }
%class.union_find = type { ptr, ptr, %class.svector, %class.svector, %class.svector, %"class.union_find<nla::var_eqs<nla::emonics>>::mk_var_trail" }
%"class.union_find<nla::var_eqs<nla::emonics>>::mk_var_trail" = type { %class.trail, ptr }
%class.trail = type { ptr }
%"class.lp::incremental_vector" = type { %class.vector.18, %class.vector.19 }
%class.vector.18 = type { ptr }
%class.vector.19 = type { ptr }
%class.vector.20 = type { ptr }
%class.trail_stack = type { %class.ptr_vector.21, %class.svector, %class.region }
%class.ptr_vector.21 = type { %class.vector.22 }
%class.vector.22 = type { ptr }
%class.region = type { ptr, ptr, ptr, ptr, ptr }
%class.svector.23 = type { %class.vector.24 }
%class.vector.24 = type { ptr }
%class.svector.25 = type { %class.vector.26 }
%class.vector.26 = type { ptr }
%class.svector.27 = type { %class.vector.28 }
%class.vector.28 = type { ptr }
%"struct.nla::var_eqs<nla::emonics>::stats" = type { i32, i32 }
%struct.smt_params_helper = type { ptr, %class.params_ref }
%class.params_ref = type { ptr }
%"class.std::function" = type { %"class.std::_Function_base", ptr }
%"class.std::_Function_base" = type { %"union.std::_Any_data", ptr }
%"union.std::_Any_data" = type { %"union.std::_Nocopy_types" }
%"union.std::_Nocopy_types" = type { { i64, i64 } }
%class.vector.29 = type { ptr }
%class.vector.30 = type { ptr }
%class.vector.31 = type { ptr }
%class.vector.32 = type { ptr }
%"struct.nla::tangents" = type { %"struct.nla::common" }
%"struct.nla::basics" = type { %"struct.nla::common" }
%"class.nla::order" = type { %"struct.nla::common" }
%"class.nla::monotone" = type { %"struct.nla::common" }
%"class.nla::powers" = type { ptr }
%"class.nla::divisions" = type { ptr, %class.vector.33, %class.vector.33, %class.vector.33 }
%class.vector.33 = type { ptr }
%"class.nla::intervals" = type { %class.dep_intervals, ptr }
%class.dep_intervals = type { ptr, %class.mpq_manager, %"class.dep_intervals::im_config", %class.interval_manager }
%class.mpq_manager = type { %class.mpz_manager, %class.mpz, %class.mpz, %class.mpz, %class.mpz, %class.mpq, %class.mpq }
%class.mpz_manager = type { %class.small_object_allocator, %"class.std::recursive_mutex", %class.mpn_manager, i32, %class.mpz, %class.mpz }
%class.small_object_allocator = type { [32 x ptr], [32 x ptr], i64 }
%"class.std::recursive_mutex" = type { %"class.std::__recursive_mutex_base" }
%"class.std::__recursive_mutex_base" = type { %union.pthread_mutex_t }
%union.pthread_mutex_t = type { %struct.__pthread_mutex_s }
%struct.__pthread_mutex_s = type { i32, i32, i32, i32, i32, i16, i16, %struct.__pthread_internal_list }
%struct.__pthread_internal_list = type { ptr, ptr }
%class.mpn_manager = type { i8 }
%"class.dep_intervals::im_config" = type { ptr, ptr }
%class.interval_manager = type { ptr, %"class.dep_intervals::im_config", %class.mpq, %class.mpq, %class.mpq, %class.mpq, %class.mpq, %class.mpq, %class.mpq, %class.mpq, %class.mpq, i32, %"struct.dep_intervals::im_config::interval", %"struct.dep_intervals::im_config::interval", %"struct.dep_intervals::im_config::interval", %"struct.dep_intervals::im_config::interval" }
%"struct.dep_intervals::im_config::interval" = type { %class.mpq, %class.mpq, i8, ptr, ptr }
%"class.nla::horner" = type <{ %"struct.nla::common", %"class.nla::nex_creator::sum_factory", i32, [4 x i8] }>
%"class.nla::nex_creator::sum_factory" = type { ptr, %class.ptr_vector }
%"class.nla::grobner" = type { %"struct.nla::common", %"class.dd::pdd_manager", %"class.dd::solver", ptr, %class.indexed_uint_set, i32, i32, i32, i8, %"class.std::unordered_map.53" }
%"class.dd::pdd_manager" = type { %class.svector.34, %class.vector.36, %class.ptr_hashtable, %class.hashtable, %class.hashtable.39, %class.map, %class.svector, ptr, %class.svector, %class.svector, %class.svector, %class.svector, %class.small_object_allocator, %class.svector, i32, %class.svector, %class.svector, %class.svector.45, i8, i8, i32, i32, %class.svector, %class.svector, %class.rational, %class.rational, i32, %class.rational, %class.svector, i32, %class.svector, %class.svector, %class.rational, %class.rational }
%class.svector.34 = type { %class.vector.35 }
%class.vector.35 = type { ptr }
%class.vector.36 = type { ptr }
%class.ptr_hashtable = type { %class.core_hashtable.base, [4 x i8] }
%class.core_hashtable.base = type <{ ptr, i32, i32, i32 }>
%class.hashtable = type { %class.core_hashtable.base.38, [4 x i8] }
%class.core_hashtable.base.38 = type <{ ptr, i32, i32, i32 }>
%class.hashtable.39 = type { %class.core_hashtable.base.41, [4 x i8] }
%class.core_hashtable.base.41 = type <{ ptr, i32, i32, i32 }>
%class.map = type { %class.table2map }
%class.table2map = type { %class.core_hashtable.43 }
%class.core_hashtable.43 = type <{ ptr, i32, i32, i32, [4 x i8] }>
%class.svector.45 = type { %class.vector.46 }
%class.vector.46 = type { ptr }
%"class.dd::solver" = type { ptr, ptr, ptr, %"class.dd::solver::stats", %"struct.dd::solver::config", %"class.std::function.47", %class.ptr_vector.50, %class.ptr_vector.50, %class.ptr_vector.50, %class.vector.52, %class.ptr_vector.50, ptr, i8, i32, %class.svector, %class.svector }
%"class.dd::solver::stats" = type <{ i32, [4 x i8], double, i32, i32, i32, [4 x i8] }>
%"struct.dd::solver::config" = type { i32, i32, i32, i32, i32, i32, i8, i32, i32, i32, i32 }
%"class.std::function.47" = type { %"class.std::_Function_base", ptr }
%class.vector.52 = type { ptr }
%class.ptr_vector.50 = type { %class.vector.51 }
%class.vector.51 = type { ptr }
%"class.std::unordered_map.53" = type { %"class.std::_Hashtable.54" }
%"class.std::_Hashtable.54" = type { ptr, i64, %"struct.std::__detail::_Hash_node_base", i64, %"struct.std::__detail::_Prime_rehash_policy", ptr }
%"class.nla::emonics" = type { %class.trail_stack, %class.union_find.71, %class.svector, ptr, %class.vector.72, %class.svector, i32, %class.svector.73, %"struct.nla::emonics::hash_canonical", %"struct.nla::emonics::eq_canonical", %class.map.75 }
%class.union_find.71 = type { ptr, ptr, %class.svector, %class.svector, %class.svector, %"class.union_find<nla::emonics>::mk_var_trail" }
%"class.union_find<nla::emonics>::mk_var_trail" = type { %class.trail, ptr }
%class.vector.72 = type { ptr }
%class.svector.73 = type { %class.vector.74 }
%class.vector.74 = type { ptr }
%"struct.nla::emonics::hash_canonical" = type { ptr }
%"struct.nla::emonics::eq_canonical" = type { ptr }
%class.map.75 = type { %class.table2map.76 }
%class.table2map.76 = type { %class.core_hashtable.77 }
%class.core_hashtable.77 = type <{ %"struct.table2map<default_map_entry<unsigned int, svector<unsigned int>>, nla::emonics::hash_canonical, nla::emonics::eq_canonical>::entry_hash_proc", %"struct.table2map<default_map_entry<unsigned int, svector<unsigned int>>, nla::emonics::hash_canonical, nla::emonics::eq_canonical>::entry_eq_proc", ptr, i32, i32, i32, [4 x i8] }>
%"struct.table2map<default_map_entry<unsigned int, svector<unsigned int>>, nla::emonics::hash_canonical, nla::emonics::eq_canonical>::entry_hash_proc" = type { %"struct.nla::emonics::hash_canonical" }
%"struct.table2map<default_map_entry<unsigned int, svector<unsigned int>>, nla::emonics::hash_canonical, nla::emonics::eq_canonical>::entry_eq_proc" = type { %"struct.nla::emonics::eq_canonical" }
%class.indexed_uint_set = type { i32, %class.svector, %class.svector }
%class.reslimit = type { %"struct.std::atomic", i8, i64, i64, %class.svector.79, %class.ptr_vector.81 }
%"struct.std::atomic" = type { %"struct.std::__atomic_base" }
%"struct.std::__atomic_base" = type { i32 }
%class.svector.79 = type { %class.vector.80 }
%class.vector.80 = type { ptr }
%class.ptr_vector.81 = type { %class.vector.82 }
%class.vector.82 = type { ptr }
%"class.nra::solver" = type { ptr }
%"class.lp::explanation" = type { %class.vector.171, %class.hashtable.172 }
%class.vector.171 = type { ptr }
%class.hashtable.172 = type { %class.core_hashtable.base.174, [4 x i8] }
%class.core_hashtable.base.174 = type <{ ptr, i32, i32, i32 }>
%"class.nla::new_lemma" = type { ptr, ptr }
%struct.u_hash = type { i8 }
%struct.u_eq = type { i8 }
%class.core_hashtable.173 = type <{ ptr, i32, i32, i32, [4 x i8] }>
%class.default_hash_entry = type { i32, i32, i32 }

@.str.9 = private unnamed_addr constant [33 x i8] c"propagate fixed - infeasible lra\00", align 1

; Function Attrs: mustprogress nounwind uwtable
define linkonce_odr hidden void @_ZN18default_hash_entryIjEC2Ev(ptr noundef nonnull align 4 dereferenceable(12) %this) unnamed_addr #4 comdat align 2 {
entry:
  %this.addr = alloca ptr, align 8
  store ptr %this, ptr %this.addr, align 8
  %this1 = load ptr, ptr %this.addr, align 8
  %m_hash = getelementptr inbounds %class.default_hash_entry, ptr %this1, i32 0, i32 0
  store i32 0, ptr %m_hash, align 4
  %m_state = getelementptr inbounds %class.default_hash_entry, ptr %this1, i32 0, i32 1
  store i32 0, ptr %m_state, align 4
  ret void
}

; Function Attrs: mustprogress uwtable
define linkonce_odr hidden noalias noundef ptr @_Z10alloc_vectI18default_hash_entryIjEEPT_j(i32 noundef %sz) #5 comdat {
entry:
  %sz.addr = alloca i32, align 4
  %r = alloca ptr, align 8
  %curr = alloca ptr, align 8
  %i = alloca i32, align 4
  store i32 %sz, ptr %sz.addr, align 4
  %0 = load i32, ptr %sz.addr, align 4
  %conv = zext i32 %0 to i64
  %mul = mul i64 12, %conv
  %call = call noalias noundef ptr @_ZN6memory8allocateEm(i64 noundef %mul)
  store ptr %call, ptr %r, align 8
  %1 = load ptr, ptr %r, align 8
  store ptr %1, ptr %curr, align 8
  store i32 0, ptr %i, align 4
  br label %for.cond

for.cond:                                         ; preds = %for.inc, %entry
  %2 = load i32, ptr %i, align 4
  %3 = load i32, ptr %sz.addr, align 4
  %cmp = icmp ult i32 %2, %3
  br i1 %cmp, label %for.body, label %for.end

for.body:                                         ; preds = %for.cond
  %4 = load ptr, ptr %curr, align 8
  call void @llvm.memset.p0.i64(ptr align 4 %4, i8 0, i64 12, i1 false)
  call void @_ZN18default_hash_entryIjEC2Ev(ptr noundef nonnull align 4 dereferenceable(12) %4) #3
  br label %for.inc

for.inc:                                          ; preds = %for.body
  %5 = load i32, ptr %i, align 4
  %inc = add i32 %5, 1
  store i32 %inc, ptr %i, align 4
  %6 = load ptr, ptr %curr, align 8
  %incdec.ptr = getelementptr inbounds %class.default_hash_entry, ptr %6, i32 1
  store ptr %incdec.ptr, ptr %curr, align 8
  br label %for.cond, !llvm.loop !13

for.end:                                          ; preds = %for.cond
  %7 = load ptr, ptr %r, align 8
  ret ptr %7
}

; Function Attrs: mustprogress uwtable
define linkonce_odr hidden noundef ptr @_ZN14core_hashtableI18default_hash_entryIjE6u_hash4u_eqE11alloc_tableEj(ptr noundef nonnull align 8 dereferenceable(20) %this, i32 noundef %size) #5 comdat align 2 {
entry:
  %this.addr = alloca ptr, align 8
  %size.addr = alloca i32, align 4
  %entries = alloca ptr, align 8
  store ptr %this, ptr %this.addr, align 8
  store i32 %size, ptr %size.addr, align 4
  %0 = load i32, ptr %size.addr, align 4
  %call = call noalias noundef ptr @_Z10alloc_vectI18default_hash_entryIjEEPT_j(i32 noundef %0)
  store ptr %call, ptr %entries, align 8
  %1 = load ptr, ptr %entries, align 8
  ret ptr %1
}

; Function Attrs: mustprogress uwtable
define linkonce_odr hidden void @_ZN14core_hashtableI18default_hash_entryIjE6u_hash4u_eqEC2EjRKS2_RKS3_(ptr noundef nonnull align 8 dereferenceable(20) %this, i32 noundef %initial_capacity, ptr noundef nonnull align 1 dereferenceable(1) %h, ptr noundef nonnull align 1 dereferenceable(1) %e) unnamed_addr #5 comdat align 2 {
entry:
  %this.addr = alloca ptr, align 8
  %initial_capacity.addr = alloca i32, align 4
  %h.addr = alloca ptr, align 8
  %e.addr = alloca ptr, align 8
  store ptr %this, ptr %this.addr, align 8
  store i32 %initial_capacity, ptr %initial_capacity.addr, align 4
  store ptr %h, ptr %h.addr, align 8
  store ptr %e, ptr %e.addr, align 8
  %this1 = load ptr, ptr %this.addr, align 8
  %0 = load i32, ptr %initial_capacity.addr, align 4
  %call = call noundef ptr @_ZN14core_hashtableI18default_hash_entryIjE6u_hash4u_eqE11alloc_tableEj(ptr noundef nonnull align 8 dereferenceable(20) %this1, i32 noundef %0)
  %m_table = getelementptr inbounds %class.core_hashtable.173, ptr %this1, i32 0, i32 0
  store ptr %call, ptr %m_table, align 8
  %1 = load i32, ptr %initial_capacity.addr, align 4
  %m_capacity = getelementptr inbounds %class.core_hashtable.173, ptr %this1, i32 0, i32 1
  store i32 %1, ptr %m_capacity, align 8
  %m_size = getelementptr inbounds %class.core_hashtable.173, ptr %this1, i32 0, i32 2
  store i32 0, ptr %m_size, align 4
  %m_num_deleted = getelementptr inbounds %class.core_hashtable.173, ptr %this1, i32 0, i32 3
  store i32 0, ptr %m_num_deleted, align 8
  ret void
}

; Function Attrs: mustprogress uwtable
define linkonce_odr hidden void @_ZN9hashtableIj6u_hash4u_eqEC2EjRKS0_RKS1_(ptr noundef nonnull align 8 dereferenceable(20) %this, i32 noundef %initial_capacity, ptr noundef nonnull align 1 dereferenceable(1) %h, ptr noundef nonnull align 1 dereferenceable(1) %e) unnamed_addr #5 comdat align 2 {
entry:
  %this.addr = alloca ptr, align 8
  %initial_capacity.addr = alloca i32, align 4
  %h.addr = alloca ptr, align 8
  %e.addr = alloca ptr, align 8
  store ptr %this, ptr %this.addr, align 8
  store i32 %initial_capacity, ptr %initial_capacity.addr, align 4
  store ptr %h, ptr %h.addr, align 8
  store ptr %e, ptr %e.addr, align 8
  %this1 = load ptr, ptr %this.addr, align 8
  %0 = load i32, ptr %initial_capacity.addr, align 4
  %1 = load ptr, ptr %h.addr, align 8
  %2 = load ptr, ptr %e.addr, align 8
  call void @_ZN14core_hashtableI18default_hash_entryIjE6u_hash4u_eqEC2EjRKS2_RKS3_(ptr noundef nonnull align 8 dereferenceable(20) %this1, i32 noundef %0, ptr noundef nonnull align 1 dereferenceable(1) %1, ptr noundef nonnull align 1 dereferenceable(1) %2)
  ret void
}

; Function Attrs: mustprogress nounwind uwtable
define linkonce_odr hidden void @_ZN6vectorISt4pairIj8rationalELb1EjEC2Ev(ptr noundef nonnull align 8 dereferenceable(8) %this) unnamed_addr #4 comdat align 2 {
entry:
  %this.addr = alloca ptr, align 8
  store ptr %this, ptr %this.addr, align 8
  %this1 = load ptr, ptr %this.addr, align 8
  %m_data = getelementptr inbounds %class.vector.171, ptr %this1, i32 0, i32 0
  store ptr null, ptr %m_data, align 8
  ret void
}

; Function Attrs: mustprogress uwtable
define linkonce_odr hidden void @_ZN2lp11explanationC2Ev(ptr noundef nonnull align 8 dereferenceable(32) %this) unnamed_addr #5 comdat align 2 personality ptr @__gxx_personality_v0 {
entry:
  %this.addr = alloca ptr, align 8
  %ref.tmp = alloca %struct.u_hash, align 1
  %ref.tmp2 = alloca %struct.u_eq, align 1
  %exn.slot = alloca ptr, align 8
  %ehselector.slot = alloca i32, align 4
  store ptr %this, ptr %this.addr, align 8
  %this1 = load ptr, ptr %this.addr, align 8
  %m_vector = getelementptr inbounds %"class.lp::explanation", ptr %this1, i32 0, i32 0
  call void @_ZN6vectorISt4pairIj8rationalELb1EjEC2Ev(ptr noundef nonnull align 8 dereferenceable(8) %m_vector) #3
  %m_set = getelementptr inbounds %"class.lp::explanation", ptr %this1, i32 0, i32 1
  invoke void @_ZN9hashtableIj6u_hash4u_eqEC2EjRKS0_RKS1_(ptr noundef nonnull align 8 dereferenceable(20) %m_set, i32 noundef 8, ptr noundef nonnull align 1 dereferenceable(1) %ref.tmp, ptr noundef nonnull align 1 dereferenceable(1) %ref.tmp2)
          to label %invoke.cont unwind label %lpad

invoke.cont:                                      ; preds = %entry
  ret void

lpad:                                             ; preds = %entry
  %0 = landingpad { ptr, i32 }
          cleanup
  %1 = extractvalue { ptr, i32 } %0, 0
  store ptr %1, ptr %exn.slot, align 8
  %2 = extractvalue { ptr, i32 } %0, 1
  store i32 %2, ptr %ehselector.slot, align 4
  call void @_ZN6vectorISt4pairIj8rationalELb1EjED2Ev(ptr noundef nonnull align 8 dereferenceable(8) %m_vector) #3
  br label %eh.resume

eh.resume:                                        ; preds = %lpad
  %exn = load ptr, ptr %exn.slot, align 8
  %sel = load i32, ptr %ehselector.slot, align 4
  %lpad.val = insertvalue { ptr, i32 } poison, ptr %exn, 0
  %lpad.val3 = insertvalue { ptr, i32 } %lpad.val, i32 %sel, 1
  resume { ptr, i32 } %lpad.val3
}

; Function Attrs: mustprogress nounwind uwtable
define linkonce_odr hidden noundef nonnull align 8 dereferenceable(4720) ptr @_ZN3nla6common1cEv(ptr noundef nonnull align 8 dereferenceable(184) %this) #4 comdat align 2 {
entry:
  %this.addr = alloca ptr, align 8
  store ptr %this, ptr %this.addr, align 8
  %this1 = load ptr, ptr %this.addr, align 8
  %m_core = getelementptr inbounds %"struct.nla::common", ptr %this1, i32 0, i32 0
  %0 = load ptr, ptr %m_core, align 8
  ret ptr %0
}

; Function Attrs: mustprogress uwtable
define hidden noundef zeroext i1 @_ZN3nla15monomial_bounds9add_lemmaEv(ptr noundef nonnull align 8 dereferenceable(192) %this) #5 align 2 personality ptr @__gxx_personality_v0 {
entry:
  %retval = alloca i1, align 1
  %this.addr = alloca ptr, align 8
  %exp = alloca %"class.lp::explanation", align 8
  %exn.slot = alloca ptr, align 8
  %ehselector.slot = alloca i32, align 4
  %lemma = alloca %"class.nla::new_lemma", align 8
  store ptr %this, ptr %this.addr, align 8
  %this1 = load ptr, ptr %this.addr, align 8
  %call = call noundef nonnull align 8 dereferenceable(4720) ptr @_ZN3nla6common1cEv(ptr noundef nonnull align 8 dereferenceable(184) %this1)
  %lra = getelementptr inbounds %"class.nla::core", ptr %call, i32 0, i32 3
  %0 = load ptr, ptr %lra, align 8
  %call2 = call noundef i32 @_ZNK2lp10lar_solver10get_statusEv(ptr noundef nonnull align 8 dereferenceable(1888) %0)
  %cmp = icmp ne i32 %call2, 1
  br i1 %cmp, label %if.then, label %if.end

if.then:                                          ; preds = %entry
  store i1 false, ptr %retval, align 1
  br label %return

if.end:                                           ; preds = %entry
  call void @_ZN2lp11explanationC2Ev(ptr noundef nonnull align 8 dereferenceable(32) %exp)
  %call3 = invoke noundef nonnull align 8 dereferenceable(4720) ptr @_ZN3nla6common1cEv(ptr noundef nonnull align 8 dereferenceable(184) %this1)
          to label %invoke.cont unwind label %lpad

invoke.cont:                                      ; preds = %if.end
  %lra4 = getelementptr inbounds %"class.nla::core", ptr %call3, i32 0, i32 3
  %1 = load ptr, ptr %lra4, align 8
  invoke void @_ZNK2lp10lar_solver29get_infeasibility_explanationERNS_11explanationE(ptr noundef nonnull align 8 dereferenceable(1888) %1, ptr noundef nonnull align 8 dereferenceable(32) %exp)
          to label %invoke.cont5 unwind label %lpad

invoke.cont5:                                     ; preds = %invoke.cont
  %call7 = invoke noundef nonnull align 8 dereferenceable(4720) ptr @_ZN3nla6common1cEv(ptr noundef nonnull align 8 dereferenceable(184) %this1)
          to label %invoke.cont6 unwind label %lpad

invoke.cont6:                                     ; preds = %invoke.cont5
  invoke void @_ZN3nla9new_lemmaC1ERNS_4coreEPKc(ptr noundef nonnull align 8 dereferenceable(16) %lemma, ptr noundef nonnull align 8 dereferenceable(4720) %call7, ptr noundef @.str.9)
          to label %invoke.cont8 unwind label %lpad

invoke.cont8:                                     ; preds = %invoke.cont6
  %call11 = invoke noundef nonnull align 8 dereferenceable(16) ptr @_ZN3nla9new_lemmaaNERKN2lp11explanationE(ptr noundef nonnull align 8 dereferenceable(16) %lemma, ptr noundef nonnull align 8 dereferenceable(32) %exp)
          to label %invoke.cont10 unwind label %lpad9

invoke.cont10:                                    ; preds = %invoke.cont8
  store i1 true, ptr %retval, align 1
  call void @_ZN3nla9new_lemmaD1Ev(ptr noundef nonnull align 8 dereferenceable(16) %lemma) #3
  call void @_ZN2lp11explanationD2Ev(ptr noundef nonnull align 8 dereferenceable(32) %exp) #3
  br label %return

lpad:                                             ; preds = %invoke.cont6, %invoke.cont5, %invoke.cont, %if.end
  %2 = landingpad { ptr, i32 }
          cleanup
  %3 = extractvalue { ptr, i32 } %2, 0
  store ptr %3, ptr %exn.slot, align 8
  %4 = extractvalue { ptr, i32 } %2, 1
  store i32 %4, ptr %ehselector.slot, align 4
  br label %ehcleanup

lpad9:                                            ; preds = %invoke.cont8
  %5 = landingpad { ptr, i32 }
          cleanup
  %6 = extractvalue { ptr, i32 } %5, 0
  store ptr %6, ptr %exn.slot, align 8
  %7 = extractvalue { ptr, i32 } %5, 1
  store i32 %7, ptr %ehselector.slot, align 4
  call void @_ZN3nla9new_lemmaD1Ev(ptr noundef nonnull align 8 dereferenceable(16) %lemma) #3
  br label %ehcleanup

ehcleanup:                                        ; preds = %lpad9, %lpad
  call void @_ZN2lp11explanationD2Ev(ptr noundef nonnull align 8 dereferenceable(32) %exp) #3
  br label %eh.resume

return:                                           ; preds = %invoke.cont10, %if.then
  %8 = load i1, ptr %retval, align 1
  ret i1 %8

eh.resume:                                        ; preds = %ehcleanup
  %exn = load ptr, ptr %exn.slot, align 8
  %sel = load i32, ptr %ehselector.slot, align 4
  %lpad.val = insertvalue { ptr, i32 } poison, ptr %exn, 0
  %lpad.val12 = insertvalue { ptr, i32 } %lpad.val, i32 %sel, 1
  resume { ptr, i32 } %lpad.val12
}