; Function Attrs: mustprogress uwtable
define hidden noundef zeroext i1 @_ZN3nla15monomial_bounds9add_lemmaEv(ptr nocapture noundef nonnull readonly align 8 dereferenceable(192) %this) local_unnamed_addr #3 align 2 personality ptr @__gxx_personality_v0 {
entry:
  %exp = alloca %"class.lp::explanation", align 8
  %lemma = alloca %"class.nla::new_lemma", align 8
  %0 = load ptr, ptr %this, align 8
  %lra = getelementptr inbounds i8, ptr %0, i64 192
  %1 = load ptr, ptr %lra, align 8
  %call2 = tail call noundef i32 @_ZNK2lp10lar_solver10get_statusEv(ptr noundef nonnull align 8 dereferenceable(1888) %1)
  %cmp.not = icmp eq i32 %call2, 1
  br i1 %cmp.not, label %if.end, label %return

if.end:                                           ; preds = %entry
  store ptr null, ptr %exp, align 8
  %call.i.i.i.i1.i = invoke noalias noundef ptr @_ZN6memory8allocateEm(i64 noundef 96)
          to label %_ZN2lp11explanationC2Ev.exit unwind label %lpad.i

common.resume:                                    ; preds = %ehcleanup, %lpad.i
  %common.resume.op = phi { ptr, i32 } [ %2, %lpad.i ], [ %.pn, %ehcleanup ]
  resume { ptr, i32 } %common.resume.op

lpad.i:                                           ; preds = %if.end
  %2 = landingpad { ptr, i32 }
          cleanup
  call void @_ZN6vectorISt4pairIj8rationalELb1EjED2Ev(ptr noundef nonnull align 8 dereferenceable(8) %exp) #16
  br label %common.resume

_ZN2lp11explanationC2Ev.exit:                     ; preds = %if.end
  %m_set.i = getelementptr inbounds i8, ptr %exp, i64 8
  tail call void @llvm.memset.p0.i64(ptr noundef nonnull align 4 dereferenceable(96) %call.i.i.i.i1.i, i8 0, i64 96, i1 false)
  store ptr %call.i.i.i.i1.i, ptr %m_set.i, align 8
  %m_capacity.i.i.i = getelementptr inbounds i8, ptr %exp, i64 16
  store i32 8, ptr %m_capacity.i.i.i, align 8
  %m_size.i.i.i = getelementptr inbounds i8, ptr %exp, i64 20
  store i32 0, ptr %m_size.i.i.i, align 4
  %m_num_deleted.i.i.i = getelementptr inbounds i8, ptr %exp, i64 24
  store i32 0, ptr %m_num_deleted.i.i.i, align 8
  %3 = load ptr, ptr %this, align 8
  %lra4 = getelementptr inbounds i8, ptr %3, i64 192
  %4 = load ptr, ptr %lra4, align 8
  invoke void @_ZNK2lp10lar_solver29get_infeasibility_explanationERNS_11explanationE(ptr noundef nonnull align 8 dereferenceable(1888) %4, ptr noundef nonnull align 8 dereferenceable(32) %exp)
          to label %invoke.cont5 unwind label %lpad

invoke.cont5:                                     ; preds = %_ZN2lp11explanationC2Ev.exit
  %5 = load ptr, ptr %this, align 8
  invoke void @_ZN3nla9new_lemmaC1ERNS_4coreEPKc(ptr noundef nonnull align 8 dereferenceable(16) %lemma, ptr noundef nonnull align 8 dereferenceable(4720) %5, ptr noundef nonnull @.str.9)
          to label %invoke.cont8 unwind label %lpad

invoke.cont8:                                     ; preds = %invoke.cont5
  %call11 = invoke noundef nonnull align 8 dereferenceable(16) ptr @_ZN3nla9new_lemmaaNERKN2lp11explanationE(ptr noundef nonnull align 8 dereferenceable(16) %lemma, ptr noundef nonnull align 8 dereferenceable(32) %exp)
          to label %invoke.cont10 unwind label %lpad9

invoke.cont10:                                    ; preds = %invoke.cont8
  call void @_ZN3nla9new_lemmaD1Ev(ptr noundef nonnull align 8 dereferenceable(16) %lemma) #16
  call void @_ZN2lp11explanationD2Ev(ptr noundef nonnull align 8 dereferenceable(32) %exp) #16
  br label %return

lpad:                                             ; preds = %invoke.cont5, %_ZN2lp11explanationC2Ev.exit
  %6 = landingpad { ptr, i32 }
          cleanup
  br label %ehcleanup

lpad9:                                            ; preds = %invoke.cont8
  %7 = landingpad { ptr, i32 }
          cleanup
  call void @_ZN3nla9new_lemmaD1Ev(ptr noundef nonnull align 8 dereferenceable(16) %lemma) #16
  br label %ehcleanup

ehcleanup:                                        ; preds = %lpad9, %lpad
  %.pn = phi { ptr, i32 } [ %7, %lpad9 ], [ %6, %lpad ]
  call void @_ZN2lp11explanationD2Ev(ptr noundef nonnull align 8 dereferenceable(32) %exp) #16
  br label %common.resume

return:                                           ; preds = %entry, %invoke.cont10
  ret i1 %cmp.not
}